; Function Attrs: mustprogress uwtable
define noundef zeroext i1 @_ZN7rocksdb4port5Mutex7TryLockEv(ptr noundef nonnull align 8 dereferenceable(40) %0) local_unnamed_addr #0 align 2 {
  %2 = alloca %"class.std::__cxx11::basic_string", align 8
  %3 = tail call i32 @pthread_mutex_trylock(ptr noundef nonnull %0) #17
  switch i32 %3, label %4 [
    i32 110, label %_ZN7rocksdb4portL11PthreadCallEPKci.exit
    i32 16, label %_ZN7rocksdb4portL11PthreadCallEPKci.exit
    i32 0, label %_ZN7rocksdb4portL11PthreadCallEPKci.exit
  ]

4:                                                ; preds = %1
  %5 = load ptr, ptr @stderr, align 8, !tbaa !4
  call void @llvm.lifetime.start.p0(i64 32, ptr nonnull %2) #17
  call void @_ZN7rocksdb8errnoStrB5cxx11Ei(ptr dead_on_unwind nonnull writable sret(%"class.std::__cxx11::basic_string") align 8 %2, i32 noundef %3)
  %6 = load ptr, ptr %2, align 8, !tbaa !9
  %7 = call i32 (ptr, ptr, ...) @fprintf(ptr noundef %5, ptr noundef nonnull @.str.21, ptr noundef nonnull @.str.7, ptr noundef %6) #18
  call void @_ZNSt7__cxx1112basic_stringIcSt11char_traitsIcESaIcEED2Ev(ptr noundef nonnull align 8 dereferenceable(32) %2) #17
  call void @llvm.lifetime.end.p0(i64 32, ptr nonnull %2) #17
  call void @abort() #19
  unreachable

_ZN7rocksdb4portL11PthreadCallEPKci.exit:         ; preds = %1, %1, %1
  %8 = icmp eq i32 %3, 0
  ret i1 %8
}